; Function Attrs: nounwind uwtable
define ptr @l_Lean_MessageData_ofConst(ptr noundef %0) local_unnamed_addr #0 {
  %2 = tail call zeroext i8 @l_Lean_Expr_isConst(ptr noundef %0) #6
  %3 = icmp eq i8 %2, 0
  br i1 %3, label %4, label %7

4:                                                ; preds = %1
  %5 = load ptr, ptr @l_Lean_MessageData_ofConst___closed__4, align 8, !tbaa !9
  %6 = tail call ptr @l_panic___at_Lean_MessageData_ofConst___spec__1(ptr noundef %0, ptr noundef %5)
  br label %30

7:                                                ; preds = %1
  %8 = load ptr, ptr @l_Lean_PrettyPrinter_ppConstNameWithInfos___closed__5, align 8, !tbaa !9
  tail call void @lean_inc_heartbeat() #6
  %9 = tail call noalias ptr @mi_malloc_small(i64 noundef 48) #6
  %10 = icmp eq ptr %9, null
  br i1 %10, label %11, label %lean_alloc_closure.exit

11:                                               ; preds = %7
  tail call void @lean_internal_panic_out_of_memory() #7
  unreachable

lean_alloc_closure.exit:                          ; preds = %7
  %12 = getelementptr inbounds nuw i8, ptr %9, i64 4
  store i32 1, ptr %9, align 4, !tbaa !4
  store i32 -184549328, ptr %12, align 4
  %13 = getelementptr inbounds nuw i8, ptr %9, i64 8
  store ptr @l_Lean_PrettyPrinter_ppExprWithInfos, ptr %13, align 8, !tbaa !9
  %14 = getelementptr inbounds nuw i8, ptr %9, i64 16
  store i16 8, ptr %14, align 8, !tbaa !15
  %15 = getelementptr inbounds nuw i8, ptr %9, i64 18
  store i16 3, ptr %15, align 2, !tbaa !15
  %16 = getelementptr inbounds nuw i8, ptr %9, i64 24
  store ptr %0, ptr %16, align 8, !tbaa !9
  %17 = getelementptr inbounds nuw i8, ptr %9, i64 32
  store ptr inttoptr (i64 1 to ptr), ptr %17, align 8, !tbaa !9
  %18 = getelementptr inbounds nuw i8, ptr %9, i64 40
  store ptr %8, ptr %18, align 8, !tbaa !9
  tail call void @lean_inc_heartbeat() #6
  %19 = tail call noalias ptr @mi_malloc_small(i64 noundef 32) #6
  %20 = icmp eq ptr %19, null
  br i1 %20, label %21, label %l_Lean_MessageData_ofFormatWithInfosM.exit

21:                                               ; preds = %lean_alloc_closure.exit
  tail call void @lean_internal_panic_out_of_memory() #7
  unreachable

l_Lean_MessageData_ofFormatWithInfosM.exit:       ; preds = %lean_alloc_closure.exit
  %22 = getelementptr inbounds nuw i8, ptr %19, i64 4
  store i32 1, ptr %19, align 4, !tbaa !4
  store i32 -184549344, ptr %22, align 4
  %23 = getelementptr inbounds nuw i8, ptr %19, i64 8
  store ptr @l_Lean_MessageData_ofFormatWithInfosM___lambda__1, ptr %23, align 8, !tbaa !9
  %24 = getelementptr inbounds nuw i8, ptr %19, i64 16
  store i16 3, ptr %24, align 8, !tbaa !15
  %25 = getelementptr inbounds nuw i8, ptr %19, i64 18
  store i16 1, ptr %25, align 2, !tbaa !15
  %26 = getelementptr inbounds nuw i8, ptr %19, i64 24
  store ptr %9, ptr %26, align 8, !tbaa !9
  %27 = load ptr, ptr @l_Lean_MessageData_ofFormatWithInfosM___closed__1, align 8, !tbaa !9
  %28 = load ptr, ptr @l_Lean_MessageData_ofFormatWithInfosM___closed__2, align 8, !tbaa !9
  %29 = tail call ptr @l_Lean_MessageData_lazy(ptr noundef nonnull %19, ptr noundef %27, ptr noundef %28) #6
  br label %30

30:                                               ; preds = %l_Lean_MessageData_ofFormatWithInfosM.exit, %4
  %.0 = phi ptr [ %6, %4 ], [ %29, %l_Lean_MessageData_ofFormatWithInfosM.exit ]
  ret ptr %.0
}